; Function Attrs: nounwind uwtable
define dso_local noundef i32 @cmd_upload_pack(i32 noundef %0, ptr noundef %1, ptr noundef %2, ptr noundef readnone captures(none) %3) local_unnamed_addr #0 {
  %5 = alloca i32, align 4
  %6 = alloca i32, align 4
  %7 = alloca i32, align 4
  %8 = alloca i32, align 4
  %9 = alloca [6 x %struct.option], align 16
  call void @llvm.lifetime.start.p0(i64 4, ptr nonnull %5) #5
  store i32 0, ptr %5, align 4, !tbaa !4
  call void @llvm.lifetime.start.p0(i64 4, ptr nonnull %6) #5
  store i32 0, ptr %6, align 4, !tbaa !4
  call void @llvm.lifetime.start.p0(i64 4, ptr nonnull %7) #5
  store i32 0, ptr %7, align 4, !tbaa !4
  call void @llvm.lifetime.start.p0(i64 4, ptr nonnull %8) #5
  store i32 0, ptr %8, align 4, !tbaa !4
  call void @llvm.lifetime.start.p0(i64 528, ptr nonnull %9) #5
  store i32 9, ptr %9, align 16, !tbaa !8
  %10 = getelementptr inbounds nuw i8, ptr %9, i64 4
  store i32 0, ptr %10, align 4, !tbaa !13
  %11 = getelementptr inbounds nuw i8, ptr %9, i64 8
  store ptr @.str, ptr %11, align 8, !tbaa !14
  %12 = getelementptr inbounds nuw i8, ptr %9, i64 16
  store ptr %7, ptr %12, align 16, !tbaa !15
  %13 = getelementptr inbounds nuw i8, ptr %9, i64 24
  store ptr null, ptr %13, align 8, !tbaa !16
  %14 = getelementptr inbounds nuw i8, ptr %9, i64 32
  store ptr @.str.1, ptr %14, align 16, !tbaa !17
  %15 = getelementptr inbounds nuw i8, ptr %9, i64 40
  store i32 2, ptr %15, align 8, !tbaa !18
  %16 = getelementptr inbounds nuw i8, ptr %9, i64 44
  store i32 0, ptr %16, align 4
  %17 = getelementptr inbounds nuw i8, ptr %9, i64 48
  store ptr null, ptr %17, align 16, !tbaa !19
  %18 = getelementptr inbounds nuw i8, ptr %9, i64 56
  store i64 1, ptr %18, align 8, !tbaa !20
  %19 = getelementptr inbounds nuw i8, ptr %9, i64 64
  %20 = getelementptr inbounds nuw i8, ptr %9, i64 88
  call void @llvm.memset.p0.i64(ptr noundef nonnull align 16 dereferenceable(24) %19, i8 0, i64 24, i1 false)
  store i32 9, ptr %20, align 8, !tbaa !8
  %21 = getelementptr inbounds nuw i8, ptr %9, i64 92
  store i32 0, ptr %21, align 4, !tbaa !13
  %22 = getelementptr inbounds nuw i8, ptr %9, i64 96
  store ptr @.str.2, ptr %22, align 16, !tbaa !14
  %23 = getelementptr inbounds nuw i8, ptr %9, i64 104
  store ptr %6, ptr %23, align 8, !tbaa !15
  %24 = getelementptr inbounds nuw i8, ptr %9, i64 112
  store ptr null, ptr %24, align 16, !tbaa !16
  %25 = getelementptr inbounds nuw i8, ptr %9, i64 120
  store ptr @.str.3, ptr %25, align 8, !tbaa !17
  %26 = getelementptr inbounds nuw i8, ptr %9, i64 128
  store i32 10, ptr %26, align 16, !tbaa !18
  %27 = getelementptr inbounds nuw i8, ptr %9, i64 132
  store i32 0, ptr %27, align 4
  %28 = getelementptr inbounds nuw i8, ptr %9, i64 136
  store ptr null, ptr %28, align 8, !tbaa !19
  %29 = getelementptr inbounds nuw i8, ptr %9, i64 144
  store i64 1, ptr %29, align 16, !tbaa !20
  %30 = getelementptr inbounds nuw i8, ptr %9, i64 152
  %31 = getelementptr inbounds nuw i8, ptr %9, i64 176
  call void @llvm.memset.p0.i64(ptr noundef nonnull align 8 dereferenceable(112) %30, i8 0, i64 112, i1 false)
  store i32 3, ptr %31, align 16, !tbaa !8
  %32 = getelementptr inbounds nuw i8, ptr %9, i64 184
  store ptr @.str.4, ptr %32, align 8, !tbaa !14
  %33 = getelementptr inbounds nuw i8, ptr %9, i64 192
  store ptr @.str.2, ptr %33, align 16, !tbaa !15
  %34 = getelementptr inbounds nuw i8, ptr %9, i64 264
  store i32 9, ptr %34, align 8, !tbaa !8
  %35 = getelementptr inbounds nuw i8, ptr %9, i64 268
  store i32 0, ptr %35, align 4, !tbaa !13
  %36 = getelementptr inbounds nuw i8, ptr %9, i64 272
  store ptr @.str.5, ptr %36, align 16, !tbaa !14
  %37 = getelementptr inbounds nuw i8, ptr %9, i64 280
  store ptr %5, ptr %37, align 8, !tbaa !15
  %38 = getelementptr inbounds nuw i8, ptr %9, i64 288
  store ptr null, ptr %38, align 16, !tbaa !16
  %39 = getelementptr inbounds nuw i8, ptr %9, i64 296
  store ptr @.str.6, ptr %39, align 8, !tbaa !17
  %40 = getelementptr inbounds nuw i8, ptr %9, i64 304
  store i32 2, ptr %40, align 16, !tbaa !18
  %41 = getelementptr inbounds nuw i8, ptr %9, i64 308
  store i32 0, ptr %41, align 4
  %42 = getelementptr inbounds nuw i8, ptr %9, i64 312
  store ptr null, ptr %42, align 8, !tbaa !19
  %43 = getelementptr inbounds nuw i8, ptr %9, i64 320
  store i64 1, ptr %43, align 16, !tbaa !20
  %44 = getelementptr inbounds nuw i8, ptr %9, i64 328
  %45 = getelementptr inbounds nuw i8, ptr %9, i64 352
  call void @llvm.memset.p0.i64(ptr noundef nonnull align 8 dereferenceable(24) %44, i8 0, i64 24, i1 false)
  store i32 11, ptr %45, align 16, !tbaa !8
  %46 = getelementptr inbounds nuw i8, ptr %9, i64 356
  store i32 0, ptr %46, align 4, !tbaa !13
  %47 = getelementptr inbounds nuw i8, ptr %9, i64 360
  store ptr @.str.7, ptr %47, align 8, !tbaa !14
  %48 = getelementptr inbounds nuw i8, ptr %9, i64 368
  store ptr %8, ptr %48, align 16, !tbaa !15
  %49 = getelementptr inbounds nuw i8, ptr %9, i64 376
  store ptr @.str.8, ptr %49, align 8, !tbaa !16
  %50 = getelementptr inbounds nuw i8, ptr %9, i64 384
  store ptr @.str.9, ptr %50, align 16, !tbaa !17
  %51 = getelementptr inbounds nuw i8, ptr %9, i64 392
  call void @llvm.memset.p0.i64(ptr noundef nonnull align 8 dereferenceable(136) %51, i8 0, i64 136, i1 false)
  call void @packet_trace_identity(ptr noundef nonnull @.str.10) #5
  call void @disable_replace_refs() #5
  store i32 0, ptr @save_commit_buffer, align 4, !tbaa !4
  call void @xsetenv(ptr noundef nonnull @.str.11, ptr noundef nonnull @.str.12, i32 noundef 0) #5
  %52 = call i32 @parse_options(i32 noundef %0, ptr noundef %1, ptr noundef %2, ptr noundef nonnull %9, ptr noundef nonnull @upload_pack_usage, i32 noundef 0) #5
  %.not = icmp eq i32 %52, 1
  br i1 %.not, label %54, label %53

53:                                               ; preds = %4
  call void @usage_with_options(ptr noundef nonnull @upload_pack_usage, ptr noundef nonnull %9) #6
  unreachable

54:                                               ; preds = %4
  call void @setup_path() #5
  %55 = load ptr, ptr %1, align 8, !tbaa !21
  %56 = load i32, ptr %5, align 4, !tbaa !4
  %.not9 = icmp eq i32 %56, 0
  %spec.select = select i1 %.not9, i32 2, i32 3
  %57 = call ptr @enter_repo(ptr noundef %55, i32 noundef %spec.select) #5
  %.not10 = icmp eq ptr %57, null
  br i1 %.not10, label %58, label %59

58:                                               ; preds = %54
  call void (ptr, ...) @die(ptr noundef nonnull @.str.13, ptr noundef %55) #6
  unreachable

59:                                               ; preds = %54
  %60 = call i32 @determine_protocol_version_server() #5
  switch i32 %60, label %78 [
    i32 2, label %61
    i32 1, label %67
    i32 0, label %73
    i32 -1, label %77
  ]

61:                                               ; preds = %59
  %62 = load i32, ptr %6, align 4, !tbaa !4
  %.not11 = icmp eq i32 %62, 0
  %63 = load ptr, ptr @the_repository, align 8, !tbaa !22
  br i1 %.not11, label %65, label %64

64:                                               ; preds = %61
  call void @protocol_v2_advertise_capabilities(ptr noundef %63) #5
  br label %78

65:                                               ; preds = %61
  %66 = load i32, ptr %7, align 4, !tbaa !4
  call void @protocol_v2_serve_loop(ptr noundef %63, i32 noundef %66) #5
  br label %78

67:                                               ; preds = %59
  %68 = load i32, ptr %6, align 4, !tbaa !4
  %69 = icmp eq i32 %68, 0
  %70 = load i32, ptr %7, align 4
  %71 = icmp ne i32 %70, 0
  %or.cond = select i1 %69, i1 %71, i1 false
  br i1 %or.cond, label %73, label %72

72:                                               ; preds = %67
  call void (i32, ptr, ...) @packet_write_fmt(i32 noundef 1, ptr noundef nonnull @.str.14) #5
  br label %73

73:                                               ; preds = %72, %67, %59
  %74 = load i32, ptr %6, align 4, !tbaa !4
  %75 = load i32, ptr %7, align 4, !tbaa !4
  %76 = load i32, ptr %8, align 4, !tbaa !4
  call void @upload_pack(i32 noundef %74, i32 noundef %75, i32 noundef %76) #5
  br label %78

77:                                               ; preds = %59
  call void (ptr, i32, ptr, ...) @BUG_fl(ptr noundef nonnull @.str.15, i32 noundef 85, ptr noundef nonnull @.str.16) #6
  unreachable

78:                                               ; preds = %64, %65, %73, %59
  call void @llvm.lifetime.end.p0(i64 528, ptr nonnull %9) #5
  call void @llvm.lifetime.end.p0(i64 4, ptr nonnull %8) #5
  call void @llvm.lifetime.end.p0(i64 4, ptr nonnull %7) #5
  call void @llvm.lifetime.end.p0(i64 4, ptr nonnull %6) #5
  call void @llvm.lifetime.end.p0(i64 4, ptr nonnull %5) #5
  ret i32 0
}